target datalayout = "e-m:e-p270:32:32-p271:32:32-p272:64:64-i64:64-i128:128-f80:128-n8:16:32:64-S128"
target triple = "x86_64-pc-linux-gnu"

%struct.Hacl_Hash_Blake2b_blake2_params_s = type { i8, i8, i8, i8, i32, i64, i8, i8, ptr, ptr }

@Hacl_Hash_Blake2b_ivTable_S = internal constant [8 x i32] [i32 1779033703, i32 -1150833019, i32 1013904242, i32 -1521486534, i32 1359893119, i32 -1694144372, i32 528734635, i32 1541459225], align 16

; Function Attrs: inlinehint nounwind uwtable
define internal i32 @__uint32_identity(i32 noundef %0) #4 {
  %2 = alloca i32, align 4
  store i32 %0, ptr %2, align 4, !tbaa !7
  %3 = load i32, ptr %2, align 4, !tbaa !7
  ret i32 %3
}

; Function Attrs: inlinehint nounwind uwtable
define internal i32 @load32(ptr noundef %0) #4 {
  %2 = alloca ptr, align 8
  %3 = alloca i32, align 4
  store ptr %0, ptr %2, align 8, !tbaa !25
  call void @llvm.lifetime.start.p0(i64 4, ptr %3) #14
  %4 = load ptr, ptr %2, align 8, !tbaa !25
  call void @llvm.memcpy.p0.p0.i64(ptr align 4 %3, ptr align 1 %4, i64 4, i1 false)
  %5 = load i32, ptr %3, align 4, !tbaa !7
  call void @llvm.lifetime.end.p0(i64 4, ptr %3) #14
  ret i32 %5
}

; Function Attrs: alwaysinline nounwind uwtable
define internal <2 x i64> @_mm_set_epi32(i32 noundef %0, i32 noundef %1, i32 noundef %2, i32 noundef %3) #3 {
  %5 = alloca i32, align 4
  %6 = alloca i32, align 4
  %7 = alloca i32, align 4
  %8 = alloca i32, align 4
  %9 = alloca <4 x i32>, align 16
  store i32 %0, ptr %5, align 4, !tbaa !7
  store i32 %1, ptr %6, align 4, !tbaa !7
  store i32 %2, ptr %7, align 4, !tbaa !7
  store i32 %3, ptr %8, align 4, !tbaa !7
  %10 = load i32, ptr %8, align 4, !tbaa !7
  %11 = insertelement <4 x i32> poison, i32 %10, i32 0
  %12 = load i32, ptr %7, align 4, !tbaa !7
  %13 = insertelement <4 x i32> %11, i32 %12, i32 1
  %14 = load i32, ptr %6, align 4, !tbaa !7
  %15 = insertelement <4 x i32> %13, i32 %14, i32 2
  %16 = load i32, ptr %5, align 4, !tbaa !7
  %17 = insertelement <4 x i32> %15, i32 %16, i32 3
  store <4 x i32> %17, ptr %9, align 16, !tbaa !22
  %18 = load <4 x i32>, ptr %9, align 16, !tbaa !22
  %19 = bitcast <4 x i32> %18 to <2 x i64>
  ret <2 x i64> %19
}

; Function Attrs: nounwind uwtable
define hidden void @python_hashlib_Hacl_Hash_Blake2s_Simd128_init(ptr noundef %0, i32 noundef %1, i32 noundef %2) #0 {
  %4 = alloca ptr, align 8
  %5 = alloca i32, align 4
  %6 = alloca i32, align 4
  %7 = alloca [8 x i8], align 1
  %8 = alloca [8 x i8], align 1
  %9 = alloca %struct.Hacl_Hash_Blake2b_blake2_params_s, align 8
  %10 = alloca [8 x i32], align 16
  %11 = alloca ptr, align 8
  %12 = alloca ptr, align 8
  %13 = alloca ptr, align 8
  %14 = alloca ptr, align 8
  %15 = alloca i32, align 4
  %16 = alloca i32, align 4
  %17 = alloca i32, align 4
  %18 = alloca i32, align 4
  %19 = alloca i32, align 4
  %20 = alloca i32, align 4
  %21 = alloca i32, align 4
  %22 = alloca i32, align 4
  %23 = alloca i32, align 4
  %24 = alloca ptr, align 8
  %25 = alloca ptr, align 8
  %26 = alloca i32, align 4
  %27 = alloca i32, align 4
  %28 = alloca i32, align 4
  %29 = alloca ptr, align 8
  %30 = alloca ptr, align 8
  %31 = alloca i32, align 4
  %32 = alloca i32, align 4
  %33 = alloca i32, align 4
  %34 = alloca i32, align 4
  %35 = alloca ptr, align 8
  %36 = alloca ptr, align 8
  %37 = alloca i32, align 4
  %38 = alloca i32, align 4
  %39 = alloca i32, align 4
  %40 = alloca ptr, align 8
  %41 = alloca ptr, align 8
  %42 = alloca i32, align 4
  %43 = alloca i32, align 4
  %44 = alloca i32, align 4
  %45 = alloca i32, align 4
  %46 = alloca i32, align 4
  %47 = alloca i32, align 4
  %48 = alloca i32, align 4
  %49 = alloca i32, align 4
  %50 = alloca i32, align 4
  %51 = alloca i32, align 4
  %52 = alloca i32, align 4
  %53 = alloca i32, align 4
  %54 = alloca i32, align 4
  %55 = alloca i32, align 4
  %56 = alloca i32, align 4
  %57 = alloca i32, align 4
  %58 = alloca i32, align 4
  %59 = alloca i32, align 4
  %60 = alloca i32, align 4
  store ptr %0, ptr %4, align 8, !tbaa !3
  store i32 %1, ptr %5, align 4, !tbaa !7
  store i32 %2, ptr %6, align 4, !tbaa !7
  call void @llvm.lifetime.start.p0(i64 8, ptr %7) #14
  call void @llvm.memset.p0.i64(ptr align 1 %7, i8 0, i64 8, i1 false)
  call void @llvm.lifetime.start.p0(i64 8, ptr %8) #14
  call void @llvm.memset.p0.i64(ptr align 1 %8, i8 0, i64 8, i1 false)
  call void @llvm.lifetime.start.p0(i64 40, ptr %9) #14
  %61 = getelementptr inbounds nuw %struct.Hacl_Hash_Blake2b_blake2_params_s, ptr %9, i32 0, i32 0
  store i8 32, ptr %61, align 8, !tbaa !9
  %62 = getelementptr inbounds nuw %struct.Hacl_Hash_Blake2b_blake2_params_s, ptr %9, i32 0, i32 1
  store i8 0, ptr %62, align 1, !tbaa !13
  %63 = getelementptr inbounds nuw %struct.Hacl_Hash_Blake2b_blake2_params_s, ptr %9, i32 0, i32 2
  store i8 1, ptr %63, align 2, !tbaa !14
  %64 = getelementptr inbounds nuw %struct.Hacl_Hash_Blake2b_blake2_params_s, ptr %9, i32 0, i32 3
  store i8 1, ptr %64, align 1, !tbaa !15
  %65 = getelementptr inbounds nuw %struct.Hacl_Hash_Blake2b_blake2_params_s, ptr %9, i32 0, i32 4
  store i32 0, ptr %65, align 4, !tbaa !16
  %66 = getelementptr inbounds nuw %struct.Hacl_Hash_Blake2b_blake2_params_s, ptr %9, i32 0, i32 5
  store i64 0, ptr %66, align 8, !tbaa !17
  %67 = getelementptr inbounds nuw %struct.Hacl_Hash_Blake2b_blake2_params_s, ptr %9, i32 0, i32 6
  store i8 0, ptr %67, align 8, !tbaa !18
  %68 = getelementptr inbounds nuw %struct.Hacl_Hash_Blake2b_blake2_params_s, ptr %9, i32 0, i32 7
  store i8 0, ptr %68, align 1, !tbaa !19
  %69 = getelementptr i8, ptr %9, i64 18
  call void @llvm.memset.p0.i64(ptr align 2 %69, i8 0, i64 6, i1 false)
  %70 = getelementptr inbounds nuw %struct.Hacl_Hash_Blake2b_blake2_params_s, ptr %9, i32 0, i32 8
  %71 = getelementptr inbounds [8 x i8], ptr %7, i64 0, i64 0
  store ptr %71, ptr %70, align 8, !tbaa !20
  %72 = getelementptr inbounds nuw %struct.Hacl_Hash_Blake2b_blake2_params_s, ptr %9, i32 0, i32 9
  %73 = getelementptr inbounds [8 x i8], ptr %8, i64 0, i64 0
  store ptr %73, ptr %72, align 8, !tbaa !21
  call void @llvm.lifetime.start.p0(i64 32, ptr %10) #14
  call void @llvm.memset.p0.i64(ptr align 16 %10, i8 0, i64 32, i1 false)
  call void @llvm.lifetime.start.p0(i64 8, ptr %11) #14
  %74 = load ptr, ptr %4, align 8, !tbaa !3
  store ptr %74, ptr %11, align 8, !tbaa !3
  call void @llvm.lifetime.start.p0(i64 8, ptr %12) #14
  %75 = load ptr, ptr %4, align 8, !tbaa !3
  %76 = getelementptr <2 x i64>, ptr %75, i64 1
  store ptr %76, ptr %12, align 8, !tbaa !3
  call void @llvm.lifetime.start.p0(i64 8, ptr %13) #14
  %77 = load ptr, ptr %4, align 8, !tbaa !3
  %78 = getelementptr <2 x i64>, ptr %77, i64 2
  store ptr %78, ptr %13, align 8, !tbaa !3
  call void @llvm.lifetime.start.p0(i64 8, ptr %14) #14
  %79 = load ptr, ptr %4, align 8, !tbaa !3
  %80 = getelementptr <2 x i64>, ptr %79, i64 3
  store ptr %80, ptr %14, align 8, !tbaa !3
  call void @llvm.lifetime.start.p0(i64 4, ptr %15) #14
  %81 = load i32, ptr @Hacl_Hash_Blake2b_ivTable_S, align 16, !tbaa !7
  store i32 %81, ptr %15, align 4, !tbaa !7
  call void @llvm.lifetime.start.p0(i64 4, ptr %16) #14
  %82 = load i32, ptr getelementptr ([8 x i32], ptr @Hacl_Hash_Blake2b_ivTable_S, i64 0, i64 1), align 4, !tbaa !7
  store i32 %82, ptr %16, align 4, !tbaa !7
  call void @llvm.lifetime.start.p0(i64 4, ptr %17) #14
  %83 = load i32, ptr getelementptr ([8 x i32], ptr @Hacl_Hash_Blake2b_ivTable_S, i64 0, i64 2), align 8, !tbaa !7
  store i32 %83, ptr %17, align 4, !tbaa !7
  call void @llvm.lifetime.start.p0(i64 4, ptr %18) #14
  %84 = load i32, ptr getelementptr ([8 x i32], ptr @Hacl_Hash_Blake2b_ivTable_S, i64 0, i64 3), align 4, !tbaa !7
  store i32 %84, ptr %18, align 4, !tbaa !7
  call void @llvm.lifetime.start.p0(i64 4, ptr %19) #14
  %85 = load i32, ptr getelementptr ([8 x i32], ptr @Hacl_Hash_Blake2b_ivTable_S, i64 0, i64 4), align 16, !tbaa !7
  store i32 %85, ptr %19, align 4, !tbaa !7
  call void @llvm.lifetime.start.p0(i64 4, ptr %20) #14
  %86 = load i32, ptr getelementptr ([8 x i32], ptr @Hacl_Hash_Blake2b_ivTable_S, i64 0, i64 5), align 4, !tbaa !7
  store i32 %86, ptr %20, align 4, !tbaa !7
  call void @llvm.lifetime.start.p0(i64 4, ptr %21) #14
  %87 = load i32, ptr getelementptr ([8 x i32], ptr @Hacl_Hash_Blake2b_ivTable_S, i64 0, i64 6), align 8, !tbaa !7
  store i32 %87, ptr %21, align 4, !tbaa !7
  call void @llvm.lifetime.start.p0(i64 4, ptr %22) #14
  %88 = load i32, ptr getelementptr ([8 x i32], ptr @Hacl_Hash_Blake2b_ivTable_S, i64 0, i64 7), align 4, !tbaa !7
  store i32 %88, ptr %22, align 4, !tbaa !7
  %89 = load i32, ptr %18, align 4, !tbaa !7
  %90 = load i32, ptr %17, align 4, !tbaa !7
  %91 = load i32, ptr %16, align 4, !tbaa !7
  %92 = load i32, ptr %15, align 4, !tbaa !7
  %93 = call <2 x i64> @_mm_set_epi32(i32 noundef %89, i32 noundef %90, i32 noundef %91, i32 noundef %92)
  %94 = load ptr, ptr %13, align 8, !tbaa !3
  %95 = getelementptr <2 x i64>, ptr %94, i64 0
  store <2 x i64> %93, ptr %95, align 16, !tbaa !22
  %96 = load i32, ptr %22, align 4, !tbaa !7
  %97 = load i32, ptr %21, align 4, !tbaa !7
  %98 = load i32, ptr %20, align 4, !tbaa !7
  %99 = load i32, ptr %19, align 4, !tbaa !7
  %100 = call <2 x i64> @_mm_set_epi32(i32 noundef %96, i32 noundef %97, i32 noundef %98, i32 noundef %99)
  %101 = load ptr, ptr %14, align 8, !tbaa !3
  %102 = getelementptr <2 x i64>, ptr %101, i64 0
  store <2 x i64> %100, ptr %102, align 16, !tbaa !22
  br label %103

103:                                              ; preds = %3
  call void @llvm.lifetime.start.p0(i64 4, ptr %23) #14
  store i32 0, ptr %23, align 4, !tbaa !7
  call void @llvm.lifetime.start.p0(i64 8, ptr %24) #14
  %104 = getelementptr inbounds [8 x i32], ptr %10, i64 0, i64 0
  %105 = getelementptr i32, ptr %104, i64 4
  store ptr %105, ptr %24, align 8, !tbaa !23
  call void @llvm.lifetime.start.p0(i64 8, ptr %25) #14
  %106 = getelementptr inbounds nuw %struct.Hacl_Hash_Blake2b_blake2_params_s, ptr %9, i32 0, i32 8
  %107 = load ptr, ptr %106, align 8, !tbaa !20
  %108 = load i32, ptr %23, align 4, !tbaa !7
  %109 = mul i32 %108, 4
  %110 = zext i32 %109 to i64
  %111 = getelementptr i8, ptr %107, i64 %110
  store ptr %111, ptr %25, align 8, !tbaa !25
  call void @llvm.lifetime.start.p0(i64 4, ptr %26) #14
  %112 = load ptr, ptr %25, align 8, !tbaa !25
  %113 = call i32 @load32(ptr noundef %112)
  %114 = call i32 @__uint32_identity(i32 noundef %113)
  store i32 %114, ptr %26, align 4, !tbaa !7
  call void @llvm.lifetime.start.p0(i64 4, ptr %27) #14
  %115 = load i32, ptr %26, align 4, !tbaa !7
  store i32 %115, ptr %27, align 4, !tbaa !7
  call void @llvm.lifetime.start.p0(i64 4, ptr %28) #14
  %116 = load i32, ptr %27, align 4, !tbaa !7
  store i32 %116, ptr %28, align 4, !tbaa !7
  %117 = load i32, ptr %28, align 4, !tbaa !7
  %118 = load ptr, ptr %24, align 8, !tbaa !23
  %119 = load i32, ptr %23, align 4, !tbaa !7
  %120 = zext i32 %119 to i64
  %121 = getelementptr i32, ptr %118, i64 %120
  store i32 %117, ptr %121, align 4, !tbaa !7
  %122 = load i32, ptr %23, align 4, !tbaa !7
  %123 = add i32 %122, 1
  store i32 %123, ptr %23, align 4, !tbaa !7
  call void @llvm.lifetime.end.p0(i64 4, ptr %28) #14
  call void @llvm.lifetime.end.p0(i64 4, ptr %27) #14
  call void @llvm.lifetime.end.p0(i64 4, ptr %26) #14
  call void @llvm.lifetime.end.p0(i64 8, ptr %25) #14
  call void @llvm.lifetime.end.p0(i64 8, ptr %24) #14
  call void @llvm.lifetime.start.p0(i64 8, ptr %29) #14
  %124 = getelementptr inbounds [8 x i32], ptr %10, i64 0, i64 0
  %125 = getelementptr i32, ptr %124, i64 4
  store ptr %125, ptr %29, align 8, !tbaa !23
  call void @llvm.lifetime.start.p0(i64 8, ptr %30) #14
  %126 = getelementptr inbounds nuw %struct.Hacl_Hash_Blake2b_blake2_params_s, ptr %9, i32 0, i32 8
  %127 = load ptr, ptr %126, align 8, !tbaa !20
  %128 = load i32, ptr %23, align 4, !tbaa !7
  %129 = mul i32 %128, 4
  %130 = zext i32 %129 to i64
  %131 = getelementptr i8, ptr %127, i64 %130
  store ptr %131, ptr %30, align 8, !tbaa !25
  call void @llvm.lifetime.start.p0(i64 4, ptr %31) #14
  %132 = load ptr, ptr %30, align 8, !tbaa !25
  %133 = call i32 @load32(ptr noundef %132)
  %134 = call i32 @__uint32_identity(i32 noundef %133)
  store i32 %134, ptr %31, align 4, !tbaa !7
  call void @llvm.lifetime.start.p0(i64 4, ptr %32) #14
  %135 = load i32, ptr %31, align 4, !tbaa !7
  store i32 %135, ptr %32, align 4, !tbaa !7
  call void @llvm.lifetime.start.p0(i64 4, ptr %33) #14
  %136 = load i32, ptr %32, align 4, !tbaa !7
  store i32 %136, ptr %33, align 4, !tbaa !7
  %137 = load i32, ptr %33, align 4, !tbaa !7
  %138 = load ptr, ptr %29, align 8, !tbaa !23
  %139 = load i32, ptr %23, align 4, !tbaa !7
  %140 = zext i32 %139 to i64
  %141 = getelementptr i32, ptr %138, i64 %140
  store i32 %137, ptr %141, align 4, !tbaa !7
  %142 = load i32, ptr %23, align 4, !tbaa !7
  %143 = add i32 %142, 1
  store i32 %143, ptr %23, align 4, !tbaa !7
  call void @llvm.lifetime.end.p0(i64 4, ptr %33) #14
  call void @llvm.lifetime.end.p0(i64 4, ptr %32) #14
  call void @llvm.lifetime.end.p0(i64 4, ptr %31) #14
  call void @llvm.lifetime.end.p0(i64 8, ptr %30) #14
  call void @llvm.lifetime.end.p0(i64 8, ptr %29) #14
  call void @llvm.lifetime.end.p0(i64 4, ptr %23) #14
  br label %144

144:                                              ; preds = %103
  br label %145

145:                                              ; preds = %144
  br label %146

146:                                              ; preds = %145
  call void @llvm.lifetime.start.p0(i64 4, ptr %34) #14
  store i32 0, ptr %34, align 4, !tbaa !7
  call void @llvm.lifetime.start.p0(i64 8, ptr %35) #14
  %147 = getelementptr inbounds [8 x i32], ptr %10, i64 0, i64 0
  %148 = getelementptr i32, ptr %147, i64 6
  store ptr %148, ptr %35, align 8, !tbaa !23
  call void @llvm.lifetime.start.p0(i64 8, ptr %36) #14
  %149 = getelementptr inbounds nuw %struct.Hacl_Hash_Blake2b_blake2_params_s, ptr %9, i32 0, i32 9
  %150 = load ptr, ptr %149, align 8, !tbaa !21
  %151 = load i32, ptr %34, align 4, !tbaa !7
  %152 = mul i32 %151, 4
  %153 = zext i32 %152 to i64
  %154 = getelementptr i8, ptr %150, i64 %153
  store ptr %154, ptr %36, align 8, !tbaa !25
  call void @llvm.lifetime.start.p0(i64 4, ptr %37) #14
  %155 = load ptr, ptr %36, align 8, !tbaa !25
  %156 = call i32 @load32(ptr noundef %155)
  %157 = call i32 @__uint32_identity(i32 noundef %156)
  store i32 %157, ptr %37, align 4, !tbaa !7
  call void @llvm.lifetime.start.p0(i64 4, ptr %38) #14
  %158 = load i32, ptr %37, align 4, !tbaa !7
  store i32 %158, ptr %38, align 4, !tbaa !7
  call void @llvm.lifetime.start.p0(i64 4, ptr %39) #14
  %159 = load i32, ptr %38, align 4, !tbaa !7
  store i32 %159, ptr %39, align 4, !tbaa !7
  %160 = load i32, ptr %39, align 4, !tbaa !7
  %161 = load ptr, ptr %35, align 8, !tbaa !23
  %162 = load i32, ptr %34, align 4, !tbaa !7
  %163 = zext i32 %162 to i64
  %164 = getelementptr i32, ptr %161, i64 %163
  store i32 %160, ptr %164, align 4, !tbaa !7
  %165 = load i32, ptr %34, align 4, !tbaa !7
  %166 = add i32 %165, 1
  store i32 %166, ptr %34, align 4, !tbaa !7
  call void @llvm.lifetime.end.p0(i64 4, ptr %39) #14
  call void @llvm.lifetime.end.p0(i64 4, ptr %38) #14
  call void @llvm.lifetime.end.p0(i64 4, ptr %37) #14
  call void @llvm.lifetime.end.p0(i64 8, ptr %36) #14
  call void @llvm.lifetime.end.p0(i64 8, ptr %35) #14
  call void @llvm.lifetime.start.p0(i64 8, ptr %40) #14
  %167 = getelementptr inbounds [8 x i32], ptr %10, i64 0, i64 0
  %168 = getelementptr i32, ptr %167, i64 6
  store ptr %168, ptr %40, align 8, !tbaa !23
  call void @llvm.lifetime.start.p0(i64 8, ptr %41) #14
  %169 = getelementptr inbounds nuw %struct.Hacl_Hash_Blake2b_blake2_params_s, ptr %9, i32 0, i32 9
  %170 = load ptr, ptr %169, align 8, !tbaa !21
  %171 = load i32, ptr %34, align 4, !tbaa !7
  %172 = mul i32 %171, 4
  %173 = zext i32 %172 to i64
  %174 = getelementptr i8, ptr %170, i64 %173
  store ptr %174, ptr %41, align 8, !tbaa !25
  call void @llvm.lifetime.start.p0(i64 4, ptr %42) #14
  %175 = load ptr, ptr %41, align 8, !tbaa !25
  %176 = call i32 @load32(ptr noundef %175)
  %177 = call i32 @__uint32_identity(i32 noundef %176)
  store i32 %177, ptr %42, align 4, !tbaa !7
  call void @llvm.lifetime.start.p0(i64 4, ptr %43) #14
  %178 = load i32, ptr %42, align 4, !tbaa !7
  store i32 %178, ptr %43, align 4, !tbaa !7
  call void @llvm.lifetime.start.p0(i64 4, ptr %44) #14
  %179 = load i32, ptr %43, align 4, !tbaa !7
  store i32 %179, ptr %44, align 4, !tbaa !7
  %180 = load i32, ptr %44, align 4, !tbaa !7
  %181 = load ptr, ptr %40, align 8, !tbaa !23
  %182 = load i32, ptr %34, align 4, !tbaa !7
  %183 = zext i32 %182 to i64
  %184 = getelementptr i32, ptr %181, i64 %183
  store i32 %180, ptr %184, align 4, !tbaa !7
  %185 = load i32, ptr %34, align 4, !tbaa !7
  %186 = add i32 %185, 1
  store i32 %186, ptr %34, align 4, !tbaa !7
  call void @llvm.lifetime.end.p0(i64 4, ptr %44) #14
  call void @llvm.lifetime.end.p0(i64 4, ptr %43) #14
  call void @llvm.lifetime.end.p0(i64 4, ptr %42) #14
  call void @llvm.lifetime.end.p0(i64 8, ptr %41) #14
  call void @llvm.lifetime.end.p0(i64 8, ptr %40) #14
  call void @llvm.lifetime.end.p0(i64 4, ptr %34) #14
  br label %187

187:                                              ; preds = %146
  br label %188

188:                                              ; preds = %187
  %189 = load i32, ptr %6, align 4, !tbaa !7
  %190 = trunc i32 %189 to i8
  %191 = zext i8 %190 to i32
  %192 = load i32, ptr %5, align 4, !tbaa !7
  %193 = trunc i32 %192 to i8
  %194 = zext i8 %193 to i32
  %195 = shl i32 %194, 8
  %196 = getelementptr inbounds nuw %struct.Hacl_Hash_Blake2b_blake2_params_s, ptr %9, i32 0, i32 2
  %197 = load i8, ptr %196, align 2, !tbaa !14
  %198 = zext i8 %197 to i32
  %199 = shl i32 %198, 16
  %200 = getelementptr inbounds nuw %struct.Hacl_Hash_Blake2b_blake2_params_s, ptr %9, i32 0, i32 3
  %201 = load i8, ptr %200, align 1, !tbaa !15
  %202 = zext i8 %201 to i32
  %203 = shl i32 %202, 24
  %204 = xor i32 %199, %203
  %205 = xor i32 %195, %204
  %206 = xor i32 %191, %205
  %207 = getelementptr [8 x i32], ptr %10, i64 0, i64 0
  store i32 %206, ptr %207, align 16, !tbaa !7
  %208 = getelementptr inbounds nuw %struct.Hacl_Hash_Blake2b_blake2_params_s, ptr %9, i32 0, i32 4
  %209 = load i32, ptr %208, align 4, !tbaa !16
  %210 = getelementptr [8 x i32], ptr %10, i64 0, i64 1
  store i32 %209, ptr %210, align 4, !tbaa !7
  %211 = getelementptr inbounds nuw %struct.Hacl_Hash_Blake2b_blake2_params_s, ptr %9, i32 0, i32 5
  %212 = load i64, ptr %211, align 8, !tbaa !17
  %213 = trunc i64 %212 to i32
  %214 = getelementptr [8 x i32], ptr %10, i64 0, i64 2
  store i32 %213, ptr %214, align 8, !tbaa !7
  %215 = getelementptr inbounds nuw %struct.Hacl_Hash_Blake2b_blake2_params_s, ptr %9, i32 0, i32 5
  %216 = load i64, ptr %215, align 8, !tbaa !17
  %217 = lshr i64 %216, 32
  %218 = trunc i64 %217 to i32
  %219 = getelementptr inbounds nuw %struct.Hacl_Hash_Blake2b_blake2_params_s, ptr %9, i32 0, i32 6
  %220 = load i8, ptr %219, align 8, !tbaa !18
  %221 = zext i8 %220 to i32
  %222 = shl i32 %221, 16
  %223 = getelementptr inbounds nuw %struct.Hacl_Hash_Blake2b_blake2_params_s, ptr %9, i32 0, i32 7
  %224 = load i8, ptr %223, align 1, !tbaa !19
  %225 = zext i8 %224 to i32
  %226 = shl i32 %225, 24
  %227 = xor i32 %222, %226
  %228 = xor i32 %218, %227
  %229 = getelementptr [8 x i32], ptr %10, i64 0, i64 3
  store i32 %228, ptr %229, align 4, !tbaa !7
  call void @llvm.lifetime.start.p0(i64 4, ptr %45) #14
  %230 = getelementptr [8 x i32], ptr %10, i64 0, i64 0
  %231 = load i32, ptr %230, align 16, !tbaa !7
  store i32 %231, ptr %45, align 4, !tbaa !7
  call void @llvm.lifetime.start.p0(i64 4, ptr %46) #14
  %232 = getelementptr [8 x i32], ptr %10, i64 0, i64 1
  %233 = load i32, ptr %232, align 4, !tbaa !7
  store i32 %233, ptr %46, align 4, !tbaa !7
  call void @llvm.lifetime.start.p0(i64 4, ptr %47) #14
  %234 = getelementptr [8 x i32], ptr %10, i64 0, i64 2
  %235 = load i32, ptr %234, align 8, !tbaa !7
  store i32 %235, ptr %47, align 4, !tbaa !7
  call void @llvm.lifetime.start.p0(i64 4, ptr %48) #14
  %236 = getelementptr [8 x i32], ptr %10, i64 0, i64 3
  %237 = load i32, ptr %236, align 4, !tbaa !7
  store i32 %237, ptr %48, align 4, !tbaa !7
  call void @llvm.lifetime.start.p0(i64 4, ptr %49) #14
  %238 = getelementptr [8 x i32], ptr %10, i64 0, i64 4
  %239 = load i32, ptr %238, align 16, !tbaa !7
  store i32 %239, ptr %49, align 4, !tbaa !7
  call void @llvm.lifetime.start.p0(i64 4, ptr %50) #14
  %240 = getelementptr [8 x i32], ptr %10, i64 0, i64 5
  %241 = load i32, ptr %240, align 4, !tbaa !7
  store i32 %241, ptr %50, align 4, !tbaa !7
  call void @llvm.lifetime.start.p0(i64 4, ptr %51) #14
  %242 = getelementptr [8 x i32], ptr %10, i64 0, i64 6
  %243 = load i32, ptr %242, align 8, !tbaa !7
  store i32 %243, ptr %51, align 4, !tbaa !7
  call void @llvm.lifetime.start.p0(i64 4, ptr %52) #14
  %244 = getelementptr [8 x i32], ptr %10, i64 0, i64 7
  %245 = load i32, ptr %244, align 4, !tbaa !7
  store i32 %245, ptr %52, align 4, !tbaa !7
  call void @llvm.lifetime.start.p0(i64 4, ptr %53) #14
  %246 = load i32, ptr %15, align 4, !tbaa !7
  %247 = load i32, ptr %45, align 4, !tbaa !7
  %248 = xor i32 %246, %247
  store i32 %248, ptr %53, align 4, !tbaa !7
  call void @llvm.lifetime.start.p0(i64 4, ptr %54) #14
  %249 = load i32, ptr %16, align 4, !tbaa !7
  %250 = load i32, ptr %46, align 4, !tbaa !7
  %251 = xor i32 %249, %250
  store i32 %251, ptr %54, align 4, !tbaa !7
  call void @llvm.lifetime.start.p0(i64 4, ptr %55) #14
  %252 = load i32, ptr %17, align 4, !tbaa !7
  %253 = load i32, ptr %47, align 4, !tbaa !7
  %254 = xor i32 %252, %253
  store i32 %254, ptr %55, align 4, !tbaa !7
  call void @llvm.lifetime.start.p0(i64 4, ptr %56) #14
  %255 = load i32, ptr %18, align 4, !tbaa !7
  %256 = load i32, ptr %48, align 4, !tbaa !7
  %257 = xor i32 %255, %256
  store i32 %257, ptr %56, align 4, !tbaa !7
  call void @llvm.lifetime.start.p0(i64 4, ptr %57) #14
  %258 = load i32, ptr %19, align 4, !tbaa !7
  %259 = load i32, ptr %49, align 4, !tbaa !7
  %260 = xor i32 %258, %259
  store i32 %260, ptr %57, align 4, !tbaa !7
  call void @llvm.lifetime.start.p0(i64 4, ptr %58) #14
  %261 = load i32, ptr %20, align 4, !tbaa !7
  %262 = load i32, ptr %50, align 4, !tbaa !7
  %263 = xor i32 %261, %262
  store i32 %263, ptr %58, align 4, !tbaa !7
  call void @llvm.lifetime.start.p0(i64 4, ptr %59) #14
  %264 = load i32, ptr %21, align 4, !tbaa !7
  %265 = load i32, ptr %51, align 4, !tbaa !7
  %266 = xor i32 %264, %265
  store i32 %266, ptr %59, align 4, !tbaa !7
  call void @llvm.lifetime.start.p0(i64 4, ptr %60) #14
  %267 = load i32, ptr %22, align 4, !tbaa !7
  %268 = load i32, ptr %52, align 4, !tbaa !7
  %269 = xor i32 %267, %268
  store i32 %269, ptr %60, align 4, !tbaa !7
  %270 = load i32, ptr %56, align 4, !tbaa !7
  %271 = load i32, ptr %55, align 4, !tbaa !7
  %272 = load i32, ptr %54, align 4, !tbaa !7
  %273 = load i32, ptr %53, align 4, !tbaa !7
  %274 = call <2 x i64> @_mm_set_epi32(i32 noundef %270, i32 noundef %271, i32 noundef %272, i32 noundef %273)
  %275 = load ptr, ptr %11, align 8, !tbaa !3
  %276 = getelementptr <2 x i64>, ptr %275, i64 0
  store <2 x i64> %274, ptr %276, align 16, !tbaa !22
  %277 = load i32, ptr %60, align 4, !tbaa !7
  %278 = load i32, ptr %59, align 4, !tbaa !7
  %279 = load i32, ptr %58, align 4, !tbaa !7
  %280 = load i32, ptr %57, align 4, !tbaa !7
  %281 = call <2 x i64> @_mm_set_epi32(i32 noundef %277, i32 noundef %278, i32 noundef %279, i32 noundef %280)
  %282 = load ptr, ptr %12, align 8, !tbaa !3
  %283 = getelementptr <2 x i64>, ptr %282, i64 0
  store <2 x i64> %281, ptr %283, align 16, !tbaa !22
  call void @llvm.lifetime.end.p0(i64 4, ptr %60) #14
  call void @llvm.lifetime.end.p0(i64 4, ptr %59) #14
  call void @llvm.lifetime.end.p0(i64 4, ptr %58) #14
  call void @llvm.lifetime.end.p0(i64 4, ptr %57) #14
  call void @llvm.lifetime.end.p0(i64 4, ptr %56) #14
  call void @llvm.lifetime.end.p0(i64 4, ptr %55) #14
  call void @llvm.lifetime.end.p0(i64 4, ptr %54) #14
  call void @llvm.lifetime.end.p0(i64 4, ptr %53) #14
  call void @llvm.lifetime.end.p0(i64 4, ptr %52) #14
  call void @llvm.lifetime.end.p0(i64 4, ptr %51) #14
  call void @llvm.lifetime.end.p0(i64 4, ptr %50) #14
  call void @llvm.lifetime.end.p0(i64 4, ptr %49) #14
  call void @llvm.lifetime.end.p0(i64 4, ptr %48) #14
  call void @llvm.lifetime.end.p0(i64 4, ptr %47) #14
  call void @llvm.lifetime.end.p0(i64 4, ptr %46) #14
  call void @llvm.lifetime.end.p0(i64 4, ptr %45) #14
  call void @llvm.lifetime.end.p0(i64 4, ptr %22) #14
  call void @llvm.lifetime.end.p0(i64 4, ptr %21) #14
  call void @llvm.lifetime.end.p0(i64 4, ptr %20) #14
  call void @llvm.lifetime.end.p0(i64 4, ptr %19) #14
  call void @llvm.lifetime.end.p0(i64 4, ptr %18) #14
  call void @llvm.lifetime.end.p0(i64 4, ptr %17) #14
  call void @llvm.lifetime.end.p0(i64 4, ptr %16) #14
  call void @llvm.lifetime.end.p0(i64 4, ptr %15) #14
  call void @llvm.lifetime.end.p0(i64 8, ptr %14) #14
  call void @llvm.lifetime.end.p0(i64 8, ptr %13) #14
  call void @llvm.lifetime.end.p0(i64 8, ptr %12) #14
  call void @llvm.lifetime.end.p0(i64 8, ptr %11) #14
  call void @llvm.lifetime.end.p0(i64 32, ptr %10) #14
  call void @llvm.lifetime.end.p0(i64 40, ptr %9) #14
  call void @llvm.lifetime.end.p0(i64 8, ptr %8) #14
  call void @llvm.lifetime.end.p0(i64 8, ptr %7) #14
  ret void
}