; Function Attrs: mustprogress nofree norecurse nosync nounwind willreturn memory(argmem: write) uwtable
define hidden void @python_hashlib_Hacl_Hash_Blake2s_Simd128_init(ptr noundef writeonly captures(none) initializes((0, 64)) %0, i32 noundef %1, i32 noundef %2) local_unnamed_addr #0 {
  %4 = getelementptr i8, ptr %0, i64 16
  %5 = getelementptr i8, ptr %0, i64 32
  %6 = getelementptr i8, ptr %0, i64 48
  store <2 x i64> <i64 -4942790177982912921, i64 -6534734903820487822>, ptr %5, align 16, !tbaa !3
  store <2 x i64> <i64 -7276294671082564993, i64 6620516960021240235>, ptr %6, align 16, !tbaa !3
  %7 = and i32 %2, 255
  %8 = shl i32 %1, 8
  %9 = and i32 %8, 65280
  %10 = or disjoint i32 %9, %7
  %11 = xor i32 %10, 1795745383
  %12 = insertelement <4 x i32> <i32 poison, i32 -1150833019, i32 1013904242, i32 -1521486534>, i32 %11, i64 0
  store <4 x i32> %12, ptr %0, align 16, !tbaa !3
  store <2 x i64> <i64 -7276294671082564993, i64 6620516960021240235>, ptr %4, align 16, !tbaa !3
  ret void
}